; Function Attrs: nounwind uwtable
define void @avfilter_graph_free(ptr noundef %0) local_unnamed_addr #0 {
  %2 = load ptr, ptr %0, align 8, !tbaa !44
  %.not = icmp eq ptr %2, null
  br i1 %.not, label %12, label %.preheader

.preheader:                                       ; preds = %1
  %3 = getelementptr inbounds nuw i8, ptr %2, i64 16
  %4 = load i32, ptr %3, align 8, !tbaa !14
  %.not1011 = icmp eq i32 %4, 0
  br i1 %.not1011, label %._crit_edge, label %.lr.ph

.lr.ph:                                           ; preds = %.preheader
  %5 = getelementptr inbounds nuw i8, ptr %2, i64 8
  br label %6

6:                                                ; preds = %.lr.ph, %6
  %7 = load ptr, ptr %5, align 8, !tbaa !15
  %8 = load ptr, ptr %7, align 8, !tbaa !18
  tail call void @avfilter_free(ptr noundef %8) #14
  %9 = load i32, ptr %3, align 8, !tbaa !14
  %.not10 = icmp eq i32 %9, 0
  br i1 %.not10, label %._crit_edge, label %6, !llvm.loop !45

._crit_edge:                                      ; preds = %6, %.preheader
  tail call void @ff_graph_thread_free(ptr noundef nonnull %2) #14
  %10 = getelementptr inbounds nuw i8, ptr %2, i64 64
  tail call void @av_freep(ptr noundef nonnull %10) #14
  tail call void @av_opt_free(ptr noundef nonnull %2) #14
  %11 = getelementptr inbounds nuw i8, ptr %2, i64 8
  tail call void @av_freep(ptr noundef nonnull %11) #14
  tail call void @av_freep(ptr noundef nonnull %0) #14
  br label %12

12:                                               ; preds = %1, %._crit_edge
  ret void
}